; Function Attrs: nounwind uwtable
define internal range(i32 -2147483648, 1) i32 @decode_subband_golomb(ptr noundef readonly captures(none) %0, ptr noundef readonly captures(none) %1) #1 {
  %3 = alloca %struct.DiracArith, align 8
  %4 = alloca %struct.GetBitContext, align 8
  %5 = getelementptr inbounds nuw i8, ptr %0, i64 32
  %6 = load ptr, ptr %5, align 8, !tbaa !4
  %7 = load ptr, ptr %1, align 8, !tbaa !253
  call void @llvm.lifetime.start.p0(i64 80, ptr nonnull %3) #13
  call void @llvm.lifetime.start.p0(i64 32, ptr nonnull %4) #13
  %8 = getelementptr inbounds nuw i8, ptr %6, i64 4716
  %9 = load i32, ptr %7, align 8, !tbaa !219
  %10 = getelementptr inbounds nuw i8, ptr %7, i64 4
  %11 = load i32, ptr %10, align 4, !tbaa !223
  %12 = icmp ne i32 %11, 0
  %13 = zext i1 %12 to i32
  %14 = add nsw i32 %9, %13
  %15 = sext i32 %14 to i64
  %16 = getelementptr inbounds [6 x %struct.anon], ptr %8, i64 0, i64 %15
  %17 = load i32, ptr %16, align 4, !tbaa !193
  %18 = getelementptr inbounds nuw i8, ptr %16, i64 4
  %19 = load i32, ptr %18, align 4, !tbaa !195
  %20 = add nsw i32 %19, %17
  %21 = icmp eq i32 %20, 2
  %22 = zext i1 %21 to i32
  %23 = getelementptr inbounds nuw i8, ptr %7, i64 48
  %24 = load i32, ptr %23, align 8, !tbaa !254
  %.not.i = icmp eq i32 %24, 0
  br i1 %.not.i, label %decode_subband_internal.exit, label %25

25:                                               ; preds = %2
  %26 = getelementptr inbounds nuw i8, ptr %7, i64 56
  %27 = load ptr, ptr %26, align 8, !tbaa !256
  %or.cond.i = icmp ugt i32 %24, 268435455
  %28 = shl nuw nsw i32 %24, 3
  %29 = select i1 %or.cond.i, i32 -8, i32 %28
  %or.cond.i.i = icmp ult i32 %29, 2147483135
  %30 = icmp ne ptr %27, null
  %or.cond3.i.i = and i1 %or.cond.i.i, %30
  %.018.i.i = select i1 %or.cond3.i.i, i32 %29, i32 0
  %.017.i.i = select i1 %or.cond.i.i, ptr %27, ptr null
  %31 = lshr exact i32 %.018.i.i, 3
  store ptr %.017.i.i, ptr %4, align 8, !tbaa !63
  %32 = getelementptr inbounds nuw i8, ptr %4, i64 20
  store i32 %.018.i.i, ptr %32, align 4, !tbaa !64
  %33 = add nuw nsw i32 %.018.i.i, 8
  %34 = getelementptr inbounds nuw i8, ptr %4, i64 24
  store i32 %33, ptr %34, align 8, !tbaa !65
  %35 = zext nneg i32 %31 to i64
  %36 = getelementptr inbounds nuw i8, ptr %.017.i.i, i64 %35
  %37 = getelementptr inbounds nuw i8, ptr %4, i64 8
  store ptr %36, ptr %37, align 8, !tbaa !66
  %38 = getelementptr inbounds nuw i8, ptr %4, i64 16
  store i32 0, ptr %38, align 8, !tbaa !67
  %39 = icmp sgt i32 %19, 0
  br i1 %39, label %.lr.ph, label %._crit_edge

.lr.ph:                                           ; preds = %25
  %40 = getelementptr inbounds nuw i8, ptr %7, i64 16
  %41 = zext nneg i32 %19 to i64
  %42 = getelementptr inbounds nuw i8, ptr %7, i64 12
  %43 = sext i32 %17 to i64
  %smax = tail call i32 @llvm.smax.i32(i32 %17, i32 0)
  %wide.trip.count = zext nneg i32 %smax to i64
  br label %44

.loopexit:                                        ; preds = %50
  %exitcond11.not = icmp eq i64 %indvars.iv.next8, %41
  br i1 %exitcond11.not, label %._crit_edge.loopexit, label %44, !llvm.loop !296

44:                                               ; preds = %.lr.ph, %.loopexit
  %indvars.iv7 = phi i64 [ 0, %.lr.ph ], [ %indvars.iv.next8, %.loopexit ]
  %.045.i4 = phi i32 [ 0, %.lr.ph ], [ %49, %.loopexit ]
  %45 = load i32, ptr %40, align 8, !tbaa !222
  %46 = sext i32 %45 to i64
  %indvars.iv.next8 = add nuw nsw i64 %indvars.iv7, 1
  %47 = mul nsw i64 %indvars.iv.next8, %46
  %48 = sdiv i64 %47, %41
  %49 = trunc i64 %48 to i32
  br label %50

50:                                               ; preds = %51, %44
  %indvars.iv = phi i64 [ %indvars.iv.next, %51 ], [ 0, %44 ]
  %.044.i = phi i32 [ %56, %51 ], [ 0, %44 ]
  %exitcond.not = icmp eq i64 %indvars.iv, %wide.trip.count
  br i1 %exitcond.not, label %.loopexit, label %51

51:                                               ; preds = %50
  %52 = load i32, ptr %42, align 4, !tbaa !221
  %53 = sext i32 %52 to i64
  %indvars.iv.next = add nuw nsw i64 %indvars.iv, 1
  %54 = mul nsw i64 %indvars.iv.next, %53
  %55 = sdiv i64 %54, %43
  %56 = trunc i64 %55 to i32
  %57 = call fastcc i32 @codeblock(ptr noundef %6, ptr noundef nonnull %7, ptr noundef %4, ptr noundef %3, i32 noundef %.044.i, i32 noundef %56, i32 noundef %.045.i4, i32 noundef %49, i32 noundef %22, i32 noundef 0)
  %58 = icmp slt i32 %57, 0
  br i1 %58, label %decode_subband_internal.exit, label %50, !llvm.loop !297

._crit_edge.loopexit:                             ; preds = %.loopexit
  %.pre = load i32, ptr %10, align 4, !tbaa !223
  br label %._crit_edge

._crit_edge:                                      ; preds = %._crit_edge.loopexit, %25
  %59 = phi i32 [ %.pre, %._crit_edge.loopexit ], [ %11, %25 ]
  %60 = icmp eq i32 %59, 0
  br i1 %60, label %61, label %decode_subband_internal.exit

61:                                               ; preds = %._crit_edge
  %62 = getelementptr inbounds nuw i8, ptr %6, i64 4656
  %63 = load i32, ptr %62, align 16, !tbaa !111
  %64 = icmp eq i32 %63, 0
  br i1 %64, label %65, label %decode_subband_internal.exit

65:                                               ; preds = %61
  %66 = getelementptr inbounds nuw i8, ptr %6, i64 4620
  %67 = load i32, ptr %66, align 4, !tbaa !96
  %.not51.i = icmp eq i32 %67, 0
  br i1 %.not51.i, label %69, label %68

68:                                               ; preds = %65
  call fastcc void @intra_dc_prediction_10(ptr noundef nonnull %7)
  br label %decode_subband_internal.exit

69:                                               ; preds = %65
  call fastcc void @intra_dc_prediction_8(ptr noundef nonnull %7)
  br label %decode_subband_internal.exit

decode_subband_internal.exit:                     ; preds = %51, %2, %._crit_edge, %61, %68, %69
  %.0.i = phi i32 [ 0, %2 ], [ 0, %68 ], [ 0, %69 ], [ 0, %61 ], [ 0, %._crit_edge ], [ %57, %51 ]
  call void @llvm.lifetime.end.p0(i64 32, ptr nonnull %4) #13
  call void @llvm.lifetime.end.p0(i64 80, ptr nonnull %3) #13
  ret i32 %.0.i
}